; Function Attrs: mustprogress uwtable
define hidden void @_ZN2qe12guarded_defs3addEP4exprRKNS_10def_vectorE(ptr noundef nonnull align 8 dereferenceable(24) %this, ptr noundef %guard, ptr noundef nonnull align 8 dereferenceable(32) %defs) local_unnamed_addr #3 align 2 {
entry:
  %m_defs = getelementptr inbounds i8, ptr %this, i64 16
  %0 = load ptr, ptr %m_defs, align 8
  %cmp.i = icmp eq ptr %0, null
  br i1 %cmp.i, label %if.then.i, label %lor.lhs.false.i

lor.lhs.false.i:                                  ; preds = %entry
  %arrayidx.i = getelementptr inbounds i8, ptr %0, i64 -4
  %1 = load i32, ptr %arrayidx.i, align 4
  %arrayidx4.i = getelementptr inbounds i8, ptr %0, i64 -8
  %2 = load i32, ptr %arrayidx4.i, align 4
  %cmp5.i = icmp eq i32 %1, %2
  br i1 %cmp5.i, label %if.then.i, label %_ZN6vectorIN2qe10def_vectorELb1EjE9push_backERKS1_.exit

if.then.i:                                        ; preds = %lor.lhs.false.i, %entry
  tail call void @_ZN6vectorIN2qe10def_vectorELb1EjE13expand_vectorEv(ptr noundef nonnull align 8 dereferenceable(8) %m_defs)
  %.pre.i = load ptr, ptr %m_defs, align 8
  %arrayidx8.phi.trans.insert.i = getelementptr inbounds i8, ptr %.pre.i, i64 -4
  %.pre1.i = load i32, ptr %arrayidx8.phi.trans.insert.i, align 4
  br label %_ZN6vectorIN2qe10def_vectorELb1EjE9push_backERKS1_.exit

_ZN6vectorIN2qe10def_vectorELb1EjE9push_backERKS1_.exit: ; preds = %lor.lhs.false.i, %if.then.i
  %3 = phi i32 [ %.pre1.i, %if.then.i ], [ %1, %lor.lhs.false.i ]
  %4 = phi ptr [ %.pre.i, %if.then.i ], [ %0, %lor.lhs.false.i ]
  %idx.ext.i = zext i32 %3 to i64
  %add.ptr.i = getelementptr inbounds %"class.qe::def_vector", ptr %4, i64 %idx.ext.i
  tail call void @_ZN2qe10def_vectorC2ERKS0_(ptr noundef nonnull align 8 dereferenceable(32) %add.ptr.i, ptr noundef nonnull align 8 dereferenceable(32) %defs)
  %5 = load ptr, ptr %m_defs, align 8
  %arrayidx10.i = getelementptr inbounds i8, ptr %5, i64 -4
  %6 = load i32, ptr %arrayidx10.i, align 4
  %inc.i = add i32 %6, 1
  store i32 %inc.i, ptr %arrayidx10.i, align 4
  %tobool.not.i.i.i.i = icmp eq ptr %guard, null
  br i1 %tobool.not.i.i.i.i, label %_ZN15ref_vector_coreI4expr19ref_manager_wrapperIS0_11ast_managerEE7inc_refEPS0_.exit.i, label %if.then.i.i.i.i

if.then.i.i.i.i:                                  ; preds = %_ZN6vectorIN2qe10def_vectorELb1EjE9push_backERKS1_.exit
  %m_ref_count.i.i.i.i.i = getelementptr inbounds i8, ptr %guard, i64 8
  %7 = load i32, ptr %m_ref_count.i.i.i.i.i, align 4
  %inc.i.i.i.i.i = add i32 %7, 1
  store i32 %inc.i.i.i.i.i, ptr %m_ref_count.i.i.i.i.i, align 4
  br label %_ZN15ref_vector_coreI4expr19ref_manager_wrapperIS0_11ast_managerEE7inc_refEPS0_.exit.i

_ZN15ref_vector_coreI4expr19ref_manager_wrapperIS0_11ast_managerEE7inc_refEPS0_.exit.i: ; preds = %if.then.i.i.i.i, %_ZN6vectorIN2qe10def_vectorELb1EjE9push_backERKS1_.exit
  %m_nodes.i = getelementptr inbounds i8, ptr %this, i64 8
  %8 = load ptr, ptr %m_nodes.i, align 8
  %cmp.i.i = icmp eq ptr %8, null
  br i1 %cmp.i.i, label %if.then.i.i, label %lor.lhs.false.i.i

lor.lhs.false.i.i:                                ; preds = %_ZN15ref_vector_coreI4expr19ref_manager_wrapperIS0_11ast_managerEE7inc_refEPS0_.exit.i
  %arrayidx.i.i = getelementptr inbounds i8, ptr %8, i64 -4
  %9 = load i32, ptr %arrayidx.i.i, align 4
  %arrayidx4.i.i = getelementptr inbounds i8, ptr %8, i64 -8
  %10 = load i32, ptr %arrayidx4.i.i, align 4
  %cmp5.i.i = icmp eq i32 %9, %10
  br i1 %cmp5.i.i, label %if.then.i.i, label %_ZN15ref_vector_coreI4expr19ref_manager_wrapperIS0_11ast_managerEE9push_backEPS0_.exit

if.then.i.i:                                      ; preds = %lor.lhs.false.i.i, %_ZN15ref_vector_coreI4expr19ref_manager_wrapperIS0_11ast_managerEE7inc_refEPS0_.exit.i
  tail call void @_ZN6vectorIP4exprLb0EjE13expand_vectorEv(ptr noundef nonnull align 8 dereferenceable(8) %m_nodes.i)
  %.pre.i.i = load ptr, ptr %m_nodes.i, align 8
  %arrayidx8.phi.trans.insert.i.i = getelementptr inbounds i8, ptr %.pre.i.i, i64 -4
  %.pre1.i.i = load i32, ptr %arrayidx8.phi.trans.insert.i.i, align 4
  br label %_ZN15ref_vector_coreI4expr19ref_manager_wrapperIS0_11ast_managerEE9push_backEPS0_.exit

_ZN15ref_vector_coreI4expr19ref_manager_wrapperIS0_11ast_managerEE9push_backEPS0_.exit: ; preds = %lor.lhs.false.i.i, %if.then.i.i
  %11 = phi i32 [ %.pre1.i.i, %if.then.i.i ], [ %9, %lor.lhs.false.i.i ]
  %12 = phi ptr [ %.pre.i.i, %if.then.i.i ], [ %8, %lor.lhs.false.i.i ]
  %idx.ext.i.i = zext i32 %11 to i64
  %add.ptr.i.i = getelementptr inbounds ptr, ptr %12, i64 %idx.ext.i.i
  store ptr %guard, ptr %add.ptr.i.i, align 8
  %13 = load ptr, ptr %m_nodes.i, align 8
  %arrayidx10.i.i = getelementptr inbounds i8, ptr %13, i64 -4
  %14 = load i32, ptr %arrayidx10.i.i, align 4
  %inc.i.i = add i32 %14, 1
  store i32 %inc.i.i, ptr %arrayidx10.i.i, align 4
  %15 = load ptr, ptr %m_defs, align 8
  %cmp.i.i1 = icmp eq ptr %15, null
  br i1 %cmp.i.i1, label %_ZN6vectorIN2qe10def_vectorELb1EjE4backEv.exit, label %if.end.i.i

if.end.i.i:                                       ; preds = %_ZN15ref_vector_coreI4expr19ref_manager_wrapperIS0_11ast_managerEE9push_backEPS0_.exit
  %arrayidx.i.i2 = getelementptr inbounds i8, ptr %15, i64 -4
  %16 = load i32, ptr %arrayidx.i.i2, align 4
  %17 = add i32 %16, -1
  %18 = zext i32 %17 to i64
  br label %_ZN6vectorIN2qe10def_vectorELb1EjE4backEv.exit

_ZN6vectorIN2qe10def_vectorELb1EjE4backEv.exit:   ; preds = %_ZN15ref_vector_coreI4expr19ref_manager_wrapperIS0_11ast_managerEE9push_backEPS0_.exit, %if.end.i.i
  %retval.0.i.i = phi i64 [ %18, %if.end.i.i ], [ 4294967295, %_ZN15ref_vector_coreI4expr19ref_manager_wrapperIS0_11ast_managerEE9push_backEPS0_.exit ]
  %arrayidx.i1.i = getelementptr inbounds %"class.qe::def_vector", ptr %15, i64 %retval.0.i.i
  tail call void @_ZN2qe10def_vector9normalizeEv(ptr noundef nonnull align 8 dereferenceable(32) %arrayidx.i1.i)
  ret void
}